; Function Attrs: nounwind uwtable
define ptr @l_Nat_SOM_Poly_denote(ptr noundef %0, ptr noundef %1) local_unnamed_addr #0 {
  %3 = ptrtoint ptr %1 to i64
  %4 = and i64 %3, 1
  %.not.i26 = icmp eq i64 %4, 0
  br i1 %.not.i26, label %8, label %5

5:                                                ; preds = %2
  %6 = lshr i64 %3, 1
  %7 = trunc i64 %6 to i32
  br label %lean_obj_tag.exit

8:                                                ; preds = %2
  %9 = getelementptr i8, ptr %1, i64 4
  %.val.i = load i32, ptr %9, align 4
  %10 = lshr i32 %.val.i, 24
  br label %lean_obj_tag.exit

lean_obj_tag.exit:                                ; preds = %5, %8
  %.0.i27 = phi i32 [ %7, %5 ], [ %10, %8 ]
  %11 = icmp eq i32 %.0.i27, 0
  br i1 %11, label %lean_dec.exit, label %12

12:                                               ; preds = %lean_obj_tag.exit
  %13 = getelementptr inbounds nuw i8, ptr %1, i64 8
  %14 = load ptr, ptr %13, align 8, !tbaa !4
  %15 = getelementptr inbounds nuw i8, ptr %1, i64 16
  %16 = load ptr, ptr %15, align 8, !tbaa !4
  %17 = getelementptr inbounds nuw i8, ptr %14, i64 8
  %18 = load ptr, ptr %17, align 8, !tbaa !4
  %19 = getelementptr inbounds nuw i8, ptr %14, i64 16
  %20 = load ptr, ptr %19, align 8, !tbaa !4
  %21 = tail call ptr @l_Nat_SOM_Mon_denote(ptr noundef %0, ptr noundef %20)
  %22 = ptrtoint ptr %18 to i64
  %23 = and i64 %22, 1
  %.not = icmp eq i64 %23, 0
  %.pre40 = ptrtoint ptr %21 to i64
  %.pre = and i64 %.pre40, 1
  %24 = icmp eq i64 %.pre, 0
  br i1 %.not, label %lean_nat_mul.exit, label %25, !prof !12

25:                                               ; preds = %12
  br i1 %24, label %lean_nat_mul.exit.thread46, label %27, !prof !12

lean_nat_mul.exit.thread46:                       ; preds = %25
  %26 = tail call ptr @lean_nat_big_mul(ptr noundef %18, ptr noundef %21) #5
  br label %41

27:                                               ; preds = %25
  %28 = lshr i64 %22, 1
  %29 = icmp ult ptr %18, inttoptr (i64 2 to ptr)
  br i1 %29, label %lean_dec.exit21, label %30

30:                                               ; preds = %27
  %31 = lshr i64 %.pre40, 1
  %mul.i = tail call { i64, i1 } @llvm.umul.with.overflow.i64(i64 %28, i64 %31)
  %mul.val.i = extractvalue { i64, i1 } %mul.i, 0
  %32 = icmp sgt i64 %mul.val.i, -1
  br i1 %32, label %33, label %38

33:                                               ; preds = %30
  %mul.ov.i = extractvalue { i64, i1 } %mul.i, 1
  br i1 %mul.ov.i, label %38, label %34

34:                                               ; preds = %33
  %35 = shl nuw i64 %mul.val.i, 1
  %36 = or disjoint i64 %35, 1
  %37 = inttoptr i64 %36 to ptr
  br label %lean_dec.exit21

38:                                               ; preds = %33, %30
  %39 = tail call ptr @lean_nat_overflow_mul(i64 noundef %28, i64 noundef %31) #5
  br label %lean_dec.exit21

lean_nat_mul.exit:                                ; preds = %12
  %40 = tail call ptr @lean_nat_big_mul(ptr noundef %18, ptr noundef %21) #5
  br i1 %24, label %41, label %lean_dec.exit21

41:                                               ; preds = %lean_nat_mul.exit.thread46, %lean_nat_mul.exit
  %42 = phi ptr [ %26, %lean_nat_mul.exit.thread46 ], [ %40, %lean_nat_mul.exit ]
  %43 = load i32, ptr %21, align 4, !tbaa !8
  %44 = icmp sgt i32 %43, 1
  br i1 %44, label %45, label %47, !prof !11

45:                                               ; preds = %41
  %46 = add nsw i32 %43, -1
  store i32 %46, ptr %21, align 4, !tbaa !8
  br label %lean_dec.exit21

47:                                               ; preds = %41
  %.not.i = icmp eq i32 %43, 0
  br i1 %.not.i, label %lean_dec.exit21, label %48

48:                                               ; preds = %47
  tail call void @lean_dec_ref_cold(ptr noundef nonnull %21) #5
  br label %lean_dec.exit21

lean_dec.exit21:                                  ; preds = %38, %34, %27, %48, %47, %45, %lean_nat_mul.exit
  %.2.i45 = phi ptr [ %42, %48 ], [ %42, %47 ], [ %42, %45 ], [ %40, %lean_nat_mul.exit ], [ %39, %38 ], [ %37, %34 ], [ %18, %27 ]
  %49 = tail call ptr @l_Nat_SOM_Poly_denote(ptr noundef %0, ptr noundef %16)
  %50 = ptrtoint ptr %.2.i45 to i64
  %51 = and i64 %50, 1
  %.not31 = icmp eq i64 %51, 0
  %.pre41 = ptrtoint ptr %49 to i64
  %.pre42 = and i64 %.pre41, 1
  %52 = icmp eq i64 %.pre42, 0
  br i1 %.not31, label %lean_nat_add.exit, label %53, !prof !12

53:                                               ; preds = %lean_dec.exit21
  br i1 %52, label %lean_nat_add.exit.thread51, label %55, !prof !12

lean_nat_add.exit.thread51:                       ; preds = %53
  %54 = tail call ptr @lean_nat_big_add(ptr noundef %.2.i45, ptr noundef %49) #5
  br label %67

55:                                               ; preds = %53
  %56 = lshr i64 %50, 1
  %57 = lshr i64 %.pre41, 1
  %58 = add nuw i64 %57, %56
  %59 = icmp sgt i64 %58, -1
  br i1 %59, label %60, label %64, !prof !11

60:                                               ; preds = %55
  %61 = shl nuw i64 %58, 1
  %62 = or disjoint i64 %61, 1
  %63 = inttoptr i64 %62 to ptr
  br label %lean_dec.exit

64:                                               ; preds = %55
  %65 = tail call ptr @lean_big_usize_to_nat(i64 noundef range(i64 0, -1) %58) #5
  br label %lean_dec.exit

lean_nat_add.exit:                                ; preds = %lean_dec.exit21
  %66 = tail call ptr @lean_nat_big_add(ptr noundef %.2.i45, ptr noundef %49) #5
  br i1 %52, label %67, label %lean_dec.exit20.thread

67:                                               ; preds = %lean_nat_add.exit.thread51, %lean_nat_add.exit
  %68 = phi ptr [ %54, %lean_nat_add.exit.thread51 ], [ %66, %lean_nat_add.exit ]
  %69 = load i32, ptr %49, align 4, !tbaa !8
  %70 = icmp sgt i32 %69, 1
  br i1 %70, label %71, label %73, !prof !11

71:                                               ; preds = %67
  %72 = add nsw i32 %69, -1
  store i32 %72, ptr %49, align 4, !tbaa !8
  br label %lean_dec.exit20

73:                                               ; preds = %67
  %.not.i22 = icmp eq i32 %69, 0
  br i1 %.not.i22, label %lean_dec.exit20, label %74

74:                                               ; preds = %73
  tail call void @lean_dec_ref_cold(ptr noundef nonnull %49) #5
  br label %lean_dec.exit20

lean_dec.exit20:                                  ; preds = %74, %73, %71
  br i1 %.not31, label %lean_dec.exit20.thread, label %lean_dec.exit

lean_dec.exit20.thread:                           ; preds = %lean_nat_add.exit, %lean_dec.exit20
  %.0.i5054 = phi ptr [ %68, %lean_dec.exit20 ], [ %66, %lean_nat_add.exit ]
  %75 = load i32, ptr %.2.i45, align 4, !tbaa !8
  %76 = icmp sgt i32 %75, 1
  br i1 %76, label %77, label %79, !prof !11

77:                                               ; preds = %lean_dec.exit20.thread
  %78 = add nsw i32 %75, -1
  store i32 %78, ptr %.2.i45, align 4, !tbaa !8
  br label %lean_dec.exit

79:                                               ; preds = %lean_dec.exit20.thread
  %.not.i24 = icmp eq i32 %75, 0
  br i1 %.not.i24, label %lean_dec.exit, label %80

80:                                               ; preds = %79
  tail call void @lean_dec_ref_cold(ptr noundef nonnull %.2.i45) #5
  br label %lean_dec.exit

lean_dec.exit:                                    ; preds = %64, %60, %lean_dec.exit20, %77, %79, %80, %lean_obj_tag.exit
  %.0 = phi ptr [ inttoptr (i64 1 to ptr), %lean_obj_tag.exit ], [ %.0.i5054, %80 ], [ %.0.i5054, %79 ], [ %.0.i5054, %77 ], [ %68, %lean_dec.exit20 ], [ %63, %60 ], [ %65, %64 ]
  ret ptr %.0
}